target datalayout = "e-m:e-p270:32:32-p271:32:32-p272:64:64-i64:64-i128:128-f80:128-n8:16:32:64-S128"
target triple = "x86_64-pc-linux-gnu"

%struct.Cbs3_Par_t_ = type { i32, i32, i32, i32, i32, i32, i32, i32 }
%struct.Cbs3_Man_t_ = type { %struct.Cbs3_Par_t_, ptr, %struct.Cbs3_Que_t_, %struct.Cbs3_Que_t_, %struct.Cbs3_Que_t_, ptr, ptr, i32, i32, i32, %struct.Vec_Int_t_, %struct.Vec_Int_t_, %struct.Vec_Int_t_, %struct.Vec_Wec_t_, %struct.Vec_Str_t_, %struct.Vec_Str_t_, %struct.Vec_Int_t_, %struct.Vec_Int_t_, %struct.Vec_Int_t_, %struct.Vec_Int_t_, i32, i32, i32, i32, i32, i32, i32, i64, i64, i64, i64, i64, i64, [3 x i32], [2 x i32], i32, i32 }
%struct.Cbs3_Que_t_ = type { i32, i32, i32, ptr }
%struct.Vec_Wec_t_ = type { i32, i32, ptr }
%struct.Vec_Str_t_ = type { i32, i32, ptr }
%struct.Vec_Int_t_ = type { i32, i32, ptr }
%struct.Gia_Man_t_ = type { ptr, ptr, i32, i32, i32, i32, ptr, ptr, i32, i32, i32, ptr, ptr, %struct.Vec_Int_t_, %struct.Vec_Int_t_, i32, i32, i32, %struct.Vec_Int_t_, ptr, ptr, ptr, i32, i32, i32, i32, ptr, ptr, ptr, ptr, ptr, i32, i32, ptr, i32, ptr, ptr, ptr, ptr, ptr, ptr, ptr, ptr, ptr, ptr, ptr, ptr, ptr, ptr, ptr, ptr, ptr, ptr, %struct.Vec_Int_t_, %struct.Vec_Int_t_, ptr, ptr, ptr, ptr, ptr, ptr, ptr, ptr, ptr, ptr, ptr, ptr, ptr, ptr, ptr, ptr, ptr, ptr, ptr, ptr, ptr, i32, float, float, ptr, ptr, i32, ptr, ptr, ptr, ptr, ptr, ptr, ptr, ptr, ptr, ptr, ptr, ptr, ptr, ptr, ptr, i64, i64, ptr, ptr, i32, i32, i32, i32, i32, i32, i32, i32, i32, i32, i32, i32, ptr, ptr, ptr, ptr, ptr, ptr, ptr, ptr, i32, i32, i32, ptr, i32, i32, ptr, ptr, ptr, ptr, ptr, ptr, i32, i32, ptr, %struct.Vec_Int_t_, %struct.Vec_Int_t_, %struct.Vec_Int_t_, ptr, ptr, ptr, i32, i32, i32, i32, ptr, ptr, ptr, ptr, ptr }

@.str = private unnamed_addr constant [11 x i8] c"CO = %8d  \00", align 1
@.str.1 = private unnamed_addr constant [12 x i8] c"AND = %8d  \00", align 1
@.str.2 = private unnamed_addr constant [13 x i8] c"Conf = %6d  \00", align 1
@.str.3 = private unnamed_addr constant [16 x i8] c"Restart = %2d  \00", align 1
@.str.4 = private unnamed_addr constant [16 x i8] c"JustMax = %5d  \00", align 1
@.str.5 = private unnamed_addr constant [2 x i8] c"\0A\00", align 1
@.str.6 = private unnamed_addr constant [50 x i8] c"Unsat calls %6d  (%6.2f %%)   Ave conf = %8.1f   \00", align 1
@.str.7 = private unnamed_addr constant [5 x i8] c"%s =\00", align 1
@.str.8 = private unnamed_addr constant [5 x i8] c"Time\00", align 1
@.str.9 = private unnamed_addr constant [22 x i8] c"%9.2f sec (%6.2f %%)\0A\00", align 1
@.str.10 = private unnamed_addr constant [50 x i8] c"Sat   calls %6d  (%6.2f %%)   Ave conf = %8.1f   \00", align 1
@.str.11 = private unnamed_addr constant [50 x i8] c"Undef calls %6d  (%6.2f %%)   Ave conf = %8.1f   \00", align 1
@.str.12 = private unnamed_addr constant [11 x i8] c"Total time\00", align 1
@.str.13 = private unnamed_addr constant [11 x i8] c"%9.2f sec\0A\00", align 1

; Function Attrs: inlinehint nounwind uwtable
define internal i32 @Vec_IntSize(ptr noundef %0) #5 {
  %2 = alloca ptr, align 8
  store ptr %0, ptr %2, align 8, !tbaa !42
  %3 = load ptr, ptr %2, align 8, !tbaa !42
  %4 = getelementptr inbounds nuw %struct.Vec_Int_t_, ptr %3, i32 0, i32 1
  %5 = load i32, ptr %4, align 4, !tbaa !43
  ret i32 %5
}

; Function Attrs: inlinehint nounwind uwtable
define internal i32 @Gia_ManAndNum(ptr noundef %0) #5 {
  %2 = alloca ptr, align 8
  store ptr %0, ptr %2, align 8, !tbaa !28
  %3 = load ptr, ptr %2, align 8, !tbaa !28
  %4 = getelementptr inbounds nuw %struct.Gia_Man_t_, ptr %3, i32 0, i32 4
  %5 = load i32, ptr %4, align 8, !tbaa !121
  %6 = load ptr, ptr %2, align 8, !tbaa !28
  %7 = getelementptr inbounds nuw %struct.Gia_Man_t_, ptr %6, i32 0, i32 11
  %8 = load ptr, ptr %7, align 8, !tbaa !122
  %9 = call i32 @Vec_IntSize(ptr noundef %8)
  %10 = sub nsw i32 %5, %9
  %11 = load ptr, ptr %2, align 8, !tbaa !28
  %12 = getelementptr inbounds nuw %struct.Gia_Man_t_, ptr %11, i32 0, i32 12
  %13 = load ptr, ptr %12, align 8, !tbaa !108
  %14 = call i32 @Vec_IntSize(ptr noundef %13)
  %15 = sub nsw i32 %10, %14
  %16 = sub nsw i32 %15, 1
  ret i32 %16
}

; Function Attrs: inlinehint nounwind uwtable
define internal i32 @Gia_ManCoNum(ptr noundef %0) #5 {
  %2 = alloca ptr, align 8
  store ptr %0, ptr %2, align 8, !tbaa !28
  %3 = load ptr, ptr %2, align 8, !tbaa !28
  %4 = getelementptr inbounds nuw %struct.Gia_Man_t_, ptr %3, i32 0, i32 12
  %5 = load ptr, ptr %4, align 8, !tbaa !108
  %6 = call i32 @Vec_IntSize(ptr noundef %5)
  ret i32 %6
}

; Function Attrs: nounwind uwtable
define void @Cbs3_ManSatPrintStats(ptr noundef %0) #0 {
  %2 = alloca ptr, align 8
  store ptr %0, ptr %2, align 8, !tbaa !14
  %3 = load ptr, ptr %2, align 8, !tbaa !14
  %4 = getelementptr inbounds nuw %struct.Cbs3_Man_t_, ptr %3, i32 0, i32 1
  %5 = load ptr, ptr %4, align 8, !tbaa !39
  %6 = call i32 @Gia_ManCoNum(ptr noundef %5)
  %7 = call i32 (ptr, ...) @printf(ptr noundef @.str, i32 noundef %6)
  %8 = load ptr, ptr %2, align 8, !tbaa !14
  %9 = getelementptr inbounds nuw %struct.Cbs3_Man_t_, ptr %8, i32 0, i32 1
  %10 = load ptr, ptr %9, align 8, !tbaa !39
  %11 = call i32 @Gia_ManAndNum(ptr noundef %10)
  %12 = call i32 (ptr, ...) @printf(ptr noundef @.str.1, i32 noundef %11)
  %13 = load ptr, ptr %2, align 8, !tbaa !14
  %14 = getelementptr inbounds nuw %struct.Cbs3_Man_t_, ptr %13, i32 0, i32 0
  %15 = getelementptr inbounds nuw %struct.Cbs3_Par_t_, ptr %14, i32 0, i32 0
  %16 = load i32, ptr %15, align 8, !tbaa !17
  %17 = call i32 (ptr, ...) @printf(ptr noundef @.str.2, i32 noundef %16)
  %18 = load ptr, ptr %2, align 8, !tbaa !14
  %19 = getelementptr inbounds nuw %struct.Cbs3_Man_t_, ptr %18, i32 0, i32 0
  %20 = getelementptr inbounds nuw %struct.Cbs3_Par_t_, ptr %19, i32 0, i32 2
  %21 = load i32, ptr %20, align 8, !tbaa !96
  %22 = call i32 (ptr, ...) @printf(ptr noundef @.str.3, i32 noundef %21)
  %23 = load ptr, ptr %2, align 8, !tbaa !14
  %24 = getelementptr inbounds nuw %struct.Cbs3_Man_t_, ptr %23, i32 0, i32 0
  %25 = getelementptr inbounds nuw %struct.Cbs3_Par_t_, ptr %24, i32 0, i32 1
  %26 = load i32, ptr %25, align 4, !tbaa !86
  %27 = call i32 (ptr, ...) @printf(ptr noundef @.str.4, i32 noundef %26)
  %28 = call i32 (ptr, ...) @printf(ptr noundef @.str.5)
  %29 = load ptr, ptr %2, align 8, !tbaa !14
  %30 = getelementptr inbounds nuw %struct.Cbs3_Man_t_, ptr %29, i32 0, i32 20
  %31 = load i32, ptr %30, align 8, !tbaa !97
  %32 = load ptr, ptr %2, align 8, !tbaa !14
  %33 = getelementptr inbounds nuw %struct.Cbs3_Man_t_, ptr %32, i32 0, i32 23
  %34 = load i32, ptr %33, align 4, !tbaa !98
  %35 = icmp ne i32 %34, 0
  br i1 %35, label %36, label %47

36:                                               ; preds = %1
  %37 = load ptr, ptr %2, align 8, !tbaa !14
  %38 = getelementptr inbounds nuw %struct.Cbs3_Man_t_, ptr %37, i32 0, i32 20
  %39 = load i32, ptr %38, align 8, !tbaa !97
  %40 = sitofp i32 %39 to double
  %41 = fmul double 1.000000e+02, %40
  %42 = load ptr, ptr %2, align 8, !tbaa !14
  %43 = getelementptr inbounds nuw %struct.Cbs3_Man_t_, ptr %42, i32 0, i32 23
  %44 = load i32, ptr %43, align 4, !tbaa !98
  %45 = sitofp i32 %44 to double
  %46 = fdiv double %41, %45
  br label %48

47:                                               ; preds = %1
  br label %48

48:                                               ; preds = %47, %36
  %49 = phi double [ %46, %36 ], [ 0.000000e+00, %47 ]
  %50 = load ptr, ptr %2, align 8, !tbaa !14
  %51 = getelementptr inbounds nuw %struct.Cbs3_Man_t_, ptr %50, i32 0, i32 20
  %52 = load i32, ptr %51, align 8, !tbaa !97
  %53 = icmp ne i32 %52, 0
  br i1 %53, label %54, label %65

54:                                               ; preds = %48
  %55 = load ptr, ptr %2, align 8, !tbaa !14
  %56 = getelementptr inbounds nuw %struct.Cbs3_Man_t_, ptr %55, i32 0, i32 24
  %57 = load i32, ptr %56, align 8, !tbaa !99
  %58 = sitofp i32 %57 to double
  %59 = fmul double 1.000000e+00, %58
  %60 = load ptr, ptr %2, align 8, !tbaa !14
  %61 = getelementptr inbounds nuw %struct.Cbs3_Man_t_, ptr %60, i32 0, i32 20
  %62 = load i32, ptr %61, align 8, !tbaa !97
  %63 = sitofp i32 %62 to double
  %64 = fdiv double %59, %63
  br label %66

65:                                               ; preds = %48
  br label %66

66:                                               ; preds = %65, %54
  %67 = phi double [ %64, %54 ], [ 0.000000e+00, %65 ]
  %68 = call i32 (ptr, ...) @printf(ptr noundef @.str.6, i32 noundef %31, double noundef %49, double noundef %67)
  call void (i32, ptr, ...) @Abc_Print(i32 noundef 1, ptr noundef @.str.7, ptr noundef @.str.8)
  %69 = load ptr, ptr %2, align 8, !tbaa !14
  %70 = getelementptr inbounds nuw %struct.Cbs3_Man_t_, ptr %69, i32 0, i32 29
  %71 = load i64, ptr %70, align 8, !tbaa !100
  %72 = sitofp i64 %71 to double
  %73 = fmul double 1.000000e+00, %72
  %74 = fdiv double %73, 1.000000e+06
  %75 = load ptr, ptr %2, align 8, !tbaa !14
  %76 = getelementptr inbounds nuw %struct.Cbs3_Man_t_, ptr %75, i32 0, i32 32
  %77 = load i64, ptr %76, align 8, !tbaa !101
  %78 = sitofp i64 %77 to double
  %79 = fcmp une double %78, 0.000000e+00
  br i1 %79, label %80, label %91

80:                                               ; preds = %66
  %81 = load ptr, ptr %2, align 8, !tbaa !14
  %82 = getelementptr inbounds nuw %struct.Cbs3_Man_t_, ptr %81, i32 0, i32 29
  %83 = load i64, ptr %82, align 8, !tbaa !100
  %84 = sitofp i64 %83 to double
  %85 = fmul double 1.000000e+02, %84
  %86 = load ptr, ptr %2, align 8, !tbaa !14
  %87 = getelementptr inbounds nuw %struct.Cbs3_Man_t_, ptr %86, i32 0, i32 32
  %88 = load i64, ptr %87, align 8, !tbaa !101
  %89 = sitofp i64 %88 to double
  %90 = fdiv double %85, %89
  br label %92

91:                                               ; preds = %66
  br label %92

92:                                               ; preds = %91, %80
  %93 = phi double [ %90, %80 ], [ 0.000000e+00, %91 ]
  call void (i32, ptr, ...) @Abc_Print(i32 noundef 1, ptr noundef @.str.9, double noundef %74, double noundef %93)
  %94 = load ptr, ptr %2, align 8, !tbaa !14
  %95 = getelementptr inbounds nuw %struct.Cbs3_Man_t_, ptr %94, i32 0, i32 21
  %96 = load i32, ptr %95, align 4, !tbaa !102
  %97 = load ptr, ptr %2, align 8, !tbaa !14
  %98 = getelementptr inbounds nuw %struct.Cbs3_Man_t_, ptr %97, i32 0, i32 23
  %99 = load i32, ptr %98, align 4, !tbaa !98
  %100 = icmp ne i32 %99, 0
  br i1 %100, label %101, label %112

101:                                              ; preds = %92
  %102 = load ptr, ptr %2, align 8, !tbaa !14
  %103 = getelementptr inbounds nuw %struct.Cbs3_Man_t_, ptr %102, i32 0, i32 21
  %104 = load i32, ptr %103, align 4, !tbaa !102
  %105 = sitofp i32 %104 to double
  %106 = fmul double 1.000000e+02, %105
  %107 = load ptr, ptr %2, align 8, !tbaa !14
  %108 = getelementptr inbounds nuw %struct.Cbs3_Man_t_, ptr %107, i32 0, i32 23
  %109 = load i32, ptr %108, align 4, !tbaa !98
  %110 = sitofp i32 %109 to double
  %111 = fdiv double %106, %110
  br label %113

112:                                              ; preds = %92
  br label %113

113:                                              ; preds = %112, %101
  %114 = phi double [ %111, %101 ], [ 0.000000e+00, %112 ]
  %115 = load ptr, ptr %2, align 8, !tbaa !14
  %116 = getelementptr inbounds nuw %struct.Cbs3_Man_t_, ptr %115, i32 0, i32 21
  %117 = load i32, ptr %116, align 4, !tbaa !102
  %118 = icmp ne i32 %117, 0
  br i1 %118, label %119, label %130

119:                                              ; preds = %113
  %120 = load ptr, ptr %2, align 8, !tbaa !14
  %121 = getelementptr inbounds nuw %struct.Cbs3_Man_t_, ptr %120, i32 0, i32 25
  %122 = load i32, ptr %121, align 4, !tbaa !103
  %123 = sitofp i32 %122 to double
  %124 = fmul double 1.000000e+00, %123
  %125 = load ptr, ptr %2, align 8, !tbaa !14
  %126 = getelementptr inbounds nuw %struct.Cbs3_Man_t_, ptr %125, i32 0, i32 21
  %127 = load i32, ptr %126, align 4, !tbaa !102
  %128 = sitofp i32 %127 to double
  %129 = fdiv double %124, %128
  br label %131

130:                                              ; preds = %113
  br label %131

131:                                              ; preds = %130, %119
  %132 = phi double [ %129, %119 ], [ 0.000000e+00, %130 ]
  %133 = call i32 (ptr, ...) @printf(ptr noundef @.str.10, i32 noundef %96, double noundef %114, double noundef %132)
  call void (i32, ptr, ...) @Abc_Print(i32 noundef 1, ptr noundef @.str.7, ptr noundef @.str.8)
  %134 = load ptr, ptr %2, align 8, !tbaa !14
  %135 = getelementptr inbounds nuw %struct.Cbs3_Man_t_, ptr %134, i32 0, i32 30
  %136 = load i64, ptr %135, align 8, !tbaa !104
  %137 = sitofp i64 %136 to double
  %138 = fmul double 1.000000e+00, %137
  %139 = fdiv double %138, 1.000000e+06
  %140 = load ptr, ptr %2, align 8, !tbaa !14
  %141 = getelementptr inbounds nuw %struct.Cbs3_Man_t_, ptr %140, i32 0, i32 32
  %142 = load i64, ptr %141, align 8, !tbaa !101
  %143 = sitofp i64 %142 to double
  %144 = fcmp une double %143, 0.000000e+00
  br i1 %144, label %145, label %156

145:                                              ; preds = %131
  %146 = load ptr, ptr %2, align 8, !tbaa !14
  %147 = getelementptr inbounds nuw %struct.Cbs3_Man_t_, ptr %146, i32 0, i32 30
  %148 = load i64, ptr %147, align 8, !tbaa !104
  %149 = sitofp i64 %148 to double
  %150 = fmul double 1.000000e+02, %149
  %151 = load ptr, ptr %2, align 8, !tbaa !14
  %152 = getelementptr inbounds nuw %struct.Cbs3_Man_t_, ptr %151, i32 0, i32 32
  %153 = load i64, ptr %152, align 8, !tbaa !101
  %154 = sitofp i64 %153 to double
  %155 = fdiv double %150, %154
  br label %157

156:                                              ; preds = %131
  br label %157

157:                                              ; preds = %156, %145
  %158 = phi double [ %155, %145 ], [ 0.000000e+00, %156 ]
  call void (i32, ptr, ...) @Abc_Print(i32 noundef 1, ptr noundef @.str.9, double noundef %139, double noundef %158)
  %159 = load ptr, ptr %2, align 8, !tbaa !14
  %160 = getelementptr inbounds nuw %struct.Cbs3_Man_t_, ptr %159, i32 0, i32 22
  %161 = load i32, ptr %160, align 8, !tbaa !105
  %162 = load ptr, ptr %2, align 8, !tbaa !14
  %163 = getelementptr inbounds nuw %struct.Cbs3_Man_t_, ptr %162, i32 0, i32 23
  %164 = load i32, ptr %163, align 4, !tbaa !98
  %165 = icmp ne i32 %164, 0
  br i1 %165, label %166, label %177

166:                                              ; preds = %157
  %167 = load ptr, ptr %2, align 8, !tbaa !14
  %168 = getelementptr inbounds nuw %struct.Cbs3_Man_t_, ptr %167, i32 0, i32 22
  %169 = load i32, ptr %168, align 8, !tbaa !105
  %170 = sitofp i32 %169 to double
  %171 = fmul double 1.000000e+02, %170
  %172 = load ptr, ptr %2, align 8, !tbaa !14
  %173 = getelementptr inbounds nuw %struct.Cbs3_Man_t_, ptr %172, i32 0, i32 23
  %174 = load i32, ptr %173, align 4, !tbaa !98
  %175 = sitofp i32 %174 to double
  %176 = fdiv double %171, %175
  br label %178

177:                                              ; preds = %157
  br label %178

178:                                              ; preds = %177, %166
  %179 = phi double [ %176, %166 ], [ 0.000000e+00, %177 ]
  %180 = load ptr, ptr %2, align 8, !tbaa !14
  %181 = getelementptr inbounds nuw %struct.Cbs3_Man_t_, ptr %180, i32 0, i32 22
  %182 = load i32, ptr %181, align 8, !tbaa !105
  %183 = icmp ne i32 %182, 0
  br i1 %183, label %184, label %195

184:                                              ; preds = %178
  %185 = load ptr, ptr %2, align 8, !tbaa !14
  %186 = getelementptr inbounds nuw %struct.Cbs3_Man_t_, ptr %185, i32 0, i32 26
  %187 = load i32, ptr %186, align 8, !tbaa !106
  %188 = sitofp i32 %187 to double
  %189 = fmul double 1.000000e+00, %188
  %190 = load ptr, ptr %2, align 8, !tbaa !14
  %191 = getelementptr inbounds nuw %struct.Cbs3_Man_t_, ptr %190, i32 0, i32 22
  %192 = load i32, ptr %191, align 8, !tbaa !105
  %193 = sitofp i32 %192 to double
  %194 = fdiv double %189, %193
  br label %196

195:                                              ; preds = %178
  br label %196

196:                                              ; preds = %195, %184
  %197 = phi double [ %194, %184 ], [ 0.000000e+00, %195 ]
  %198 = call i32 (ptr, ...) @printf(ptr noundef @.str.11, i32 noundef %161, double noundef %179, double noundef %197)
  call void (i32, ptr, ...) @Abc_Print(i32 noundef 1, ptr noundef @.str.7, ptr noundef @.str.8)
  %199 = load ptr, ptr %2, align 8, !tbaa !14
  %200 = getelementptr inbounds nuw %struct.Cbs3_Man_t_, ptr %199, i32 0, i32 31
  %201 = load i64, ptr %200, align 8, !tbaa !107
  %202 = sitofp i64 %201 to double
  %203 = fmul double 1.000000e+00, %202
  %204 = fdiv double %203, 1.000000e+06
  %205 = load ptr, ptr %2, align 8, !tbaa !14
  %206 = getelementptr inbounds nuw %struct.Cbs3_Man_t_, ptr %205, i32 0, i32 32
  %207 = load i64, ptr %206, align 8, !tbaa !101
  %208 = sitofp i64 %207 to double
  %209 = fcmp une double %208, 0.000000e+00
  br i1 %209, label %210, label %221

210:                                              ; preds = %196
  %211 = load ptr, ptr %2, align 8, !tbaa !14
  %212 = getelementptr inbounds nuw %struct.Cbs3_Man_t_, ptr %211, i32 0, i32 31
  %213 = load i64, ptr %212, align 8, !tbaa !107
  %214 = sitofp i64 %213 to double
  %215 = fmul double 1.000000e+02, %214
  %216 = load ptr, ptr %2, align 8, !tbaa !14
  %217 = getelementptr inbounds nuw %struct.Cbs3_Man_t_, ptr %216, i32 0, i32 32
  %218 = load i64, ptr %217, align 8, !tbaa !101
  %219 = sitofp i64 %218 to double
  %220 = fdiv double %215, %219
  br label %222

221:                                              ; preds = %196
  br label %222

222:                                              ; preds = %221, %210
  %223 = phi double [ %220, %210 ], [ 0.000000e+00, %221 ]
  call void (i32, ptr, ...) @Abc_Print(i32 noundef 1, ptr noundef @.str.9, double noundef %204, double noundef %223)
  call void (i32, ptr, ...) @Abc_Print(i32 noundef 1, ptr noundef @.str.7, ptr noundef @.str.12)
  %224 = load ptr, ptr %2, align 8, !tbaa !14
  %225 = getelementptr inbounds nuw %struct.Cbs3_Man_t_, ptr %224, i32 0, i32 32
  %226 = load i64, ptr %225, align 8, !tbaa !101
  %227 = sitofp i64 %226 to double
  %228 = fmul double 1.000000e+00, %227
  %229 = fdiv double %228, 1.000000e+06
  call void (i32, ptr, ...) @Abc_Print(i32 noundef 1, ptr noundef @.str.13, double noundef %229)
  ret void
}