; Function Attrs: nounwind uwtable
define void @Cbs3_ManSatPrintStats(ptr noundef readonly captures(none) %0) local_unnamed_addr #2 {
  %2 = getelementptr inbounds nuw i8, ptr %0, i64 32
  %3 = load ptr, ptr %2, align 8, !tbaa !36
  %4 = getelementptr i8, ptr %3, i64 72
  %.val = load ptr, ptr %4, align 8, !tbaa !81
  %5 = getelementptr i8, ptr %.val, i64 4
  %.val.val = load i32, ptr %5, align 4, !tbaa !31
  %6 = tail call i32 (ptr, ...) @printf(ptr noundef nonnull dereferenceable(1) @.str, i32 noundef %.val.val)
  %7 = load ptr, ptr %2, align 8, !tbaa !36
  %8 = getelementptr inbounds nuw i8, ptr %7, i64 24
  %9 = load i32, ptr %8, align 8, !tbaa !96
  %10 = getelementptr inbounds nuw i8, ptr %7, i64 64
  %11 = load ptr, ptr %10, align 8, !tbaa !97
  %12 = getelementptr i8, ptr %11, i64 4
  %.val3.i = load i32, ptr %12, align 4, !tbaa !31
  %13 = getelementptr inbounds nuw i8, ptr %7, i64 72
  %14 = load ptr, ptr %13, align 8, !tbaa !81
  %15 = getelementptr i8, ptr %14, i64 4
  %.val.i = load i32, ptr %15, align 4, !tbaa !31
  %16 = add i32 %.val.i, %.val3.i
  %17 = xor i32 %16, -1
  %18 = add i32 %9, %17
  %19 = tail call i32 (ptr, ...) @printf(ptr noundef nonnull dereferenceable(1) @.str.1, i32 noundef %18)
  %20 = load i32, ptr %0, align 8, !tbaa !11
  %21 = tail call i32 (ptr, ...) @printf(ptr noundef nonnull dereferenceable(1) @.str.2, i32 noundef %20)
  %22 = getelementptr inbounds nuw i8, ptr %0, i64 8
  %23 = load i32, ptr %22, align 8, !tbaa !98
  %24 = tail call i32 (ptr, ...) @printf(ptr noundef nonnull dereferenceable(1) @.str.3, i32 noundef %23)
  %25 = getelementptr inbounds nuw i8, ptr %0, i64 4
  %26 = load i32, ptr %25, align 4, !tbaa !68
  %27 = tail call i32 (ptr, ...) @printf(ptr noundef nonnull dereferenceable(1) @.str.4, i32 noundef %26)
  %putchar = tail call i32 @putchar(i32 10)
  %28 = getelementptr inbounds nuw i8, ptr %0, i64 304
  %29 = load i32, ptr %28, align 8, !tbaa !99
  %30 = getelementptr inbounds nuw i8, ptr %0, i64 316
  %31 = load i32, ptr %30, align 4, !tbaa !100
  %.not = icmp eq i32 %31, 0
  %32 = sitofp i32 %29 to double
  %33 = fmul double %32, 1.000000e+02
  %34 = sitofp i32 %31 to double
  %35 = fdiv double %33, %34
  %36 = select i1 %.not, double 0.000000e+00, double %35
  %.not47 = icmp eq i32 %29, 0
  br i1 %.not47, label %42, label %37

37:                                               ; preds = %1
  %38 = getelementptr inbounds nuw i8, ptr %0, i64 320
  %39 = load i32, ptr %38, align 8, !tbaa !101
  %40 = sitofp i32 %39 to double
  %41 = fdiv double %40, %32
  br label %42

42:                                               ; preds = %1, %37
  %43 = phi double [ %41, %37 ], [ 0.000000e+00, %1 ]
  %44 = tail call i32 (ptr, ...) @printf(ptr noundef nonnull dereferenceable(1) @.str.6, i32 noundef %29, double noundef %36, double noundef %43)
  tail call void (i32, ptr, ...) @Abc_Print(i32 poison, ptr noundef nonnull @.str.7, ptr noundef nonnull @.str.8)
  %45 = getelementptr inbounds nuw i8, ptr %0, i64 352
  %46 = load i64, ptr %45, align 8, !tbaa !102
  %47 = sitofp i64 %46 to double
  %48 = fdiv double %47, 1.000000e+06
  %49 = getelementptr inbounds nuw i8, ptr %0, i64 376
  %50 = load i64, ptr %49, align 8, !tbaa !103
  %.not48 = icmp eq i64 %50, 0
  %51 = sitofp i64 %50 to double
  %52 = fmul double %47, 1.000000e+02
  %53 = fdiv double %52, %51
  %54 = select i1 %.not48, double 0.000000e+00, double %53
  tail call void (i32, ptr, ...) @Abc_Print(i32 poison, ptr noundef nonnull @.str.9, double noundef %48, double noundef %54)
  %55 = getelementptr inbounds nuw i8, ptr %0, i64 308
  %56 = load i32, ptr %55, align 4, !tbaa !104
  %57 = load i32, ptr %30, align 4, !tbaa !100
  %.not49 = icmp eq i32 %57, 0
  %58 = sitofp i32 %56 to double
  %59 = fmul double %58, 1.000000e+02
  %60 = sitofp i32 %57 to double
  %61 = fdiv double %59, %60
  %62 = select i1 %.not49, double 0.000000e+00, double %61
  %.not50 = icmp eq i32 %56, 0
  br i1 %.not50, label %68, label %63

63:                                               ; preds = %42
  %64 = getelementptr inbounds nuw i8, ptr %0, i64 324
  %65 = load i32, ptr %64, align 4, !tbaa !105
  %66 = sitofp i32 %65 to double
  %67 = fdiv double %66, %58
  br label %68

68:                                               ; preds = %42, %63
  %69 = phi double [ %67, %63 ], [ 0.000000e+00, %42 ]
  %70 = tail call i32 (ptr, ...) @printf(ptr noundef nonnull dereferenceable(1) @.str.10, i32 noundef %56, double noundef %62, double noundef %69)
  tail call void (i32, ptr, ...) @Abc_Print(i32 poison, ptr noundef nonnull @.str.7, ptr noundef nonnull @.str.8)
  %71 = getelementptr inbounds nuw i8, ptr %0, i64 360
  %72 = load i64, ptr %71, align 8, !tbaa !106
  %73 = sitofp i64 %72 to double
  %74 = fdiv double %73, 1.000000e+06
  %75 = load i64, ptr %49, align 8, !tbaa !103
  %.not51 = icmp eq i64 %75, 0
  %76 = sitofp i64 %75 to double
  %77 = fmul double %73, 1.000000e+02
  %78 = fdiv double %77, %76
  %79 = select i1 %.not51, double 0.000000e+00, double %78
  tail call void (i32, ptr, ...) @Abc_Print(i32 poison, ptr noundef nonnull @.str.9, double noundef %74, double noundef %79)
  %80 = getelementptr inbounds nuw i8, ptr %0, i64 312
  %81 = load i32, ptr %80, align 8, !tbaa !107
  %82 = load i32, ptr %30, align 4, !tbaa !100
  %83 = sitofp i32 %81 to double
  %.not53 = icmp eq i32 %81, 0
  br i1 %.not53, label %89, label %84

84:                                               ; preds = %68
  %85 = getelementptr inbounds nuw i8, ptr %0, i64 328
  %86 = load i32, ptr %85, align 8, !tbaa !108
  %87 = sitofp i32 %86 to double
  %88 = fdiv double %87, %83
  br label %89

89:                                               ; preds = %68, %84
  %90 = phi double [ %88, %84 ], [ 0.000000e+00, %68 ]
  %.not52 = icmp eq i32 %82, 0
  %91 = fmul double %83, 1.000000e+02
  %92 = sitofp i32 %82 to double
  %93 = fdiv double %91, %92
  %94 = select i1 %.not52, double 0.000000e+00, double %93
  %95 = tail call i32 (ptr, ...) @printf(ptr noundef nonnull dereferenceable(1) @.str.11, i32 noundef %81, double noundef %94, double noundef %90)
  tail call void (i32, ptr, ...) @Abc_Print(i32 poison, ptr noundef nonnull @.str.7, ptr noundef nonnull @.str.8)
  %96 = getelementptr inbounds nuw i8, ptr %0, i64 368
  %97 = load i64, ptr %96, align 8, !tbaa !109
  %98 = sitofp i64 %97 to double
  %99 = load i64, ptr %49, align 8, !tbaa !103
  %.not54 = icmp eq i64 %99, 0
  %100 = sitofp i64 %99 to double
  %101 = fmul double %98, 1.000000e+02
  %102 = fdiv double %101, %100
  %103 = select i1 %.not54, double 0.000000e+00, double %102
  %104 = fdiv double %98, 1.000000e+06
  tail call void (i32, ptr, ...) @Abc_Print(i32 poison, ptr noundef nonnull @.str.9, double noundef %104, double noundef %103)
  tail call void (i32, ptr, ...) @Abc_Print(i32 poison, ptr noundef nonnull @.str.7, ptr noundef nonnull @.str.12)
  %105 = load i64, ptr %49, align 8, !tbaa !103
  %106 = sitofp i64 %105 to double
  %107 = fdiv double %106, 1.000000e+06
  tail call void (i32, ptr, ...) @Abc_Print(i32 poison, ptr noundef nonnull @.str.13, double noundef %107)
  ret void
}